; Function Attrs: mustprogress nofree norecurse nosync nounwind willreturn memory(readwrite, inaccessiblemem: none) uwtable
define hidden void @_ZN5zxing9BitMatrix4flipEii(ptr nocapture noundef nonnull readonly align 8 dereferenceable(346) %0, i32 noundef %1, i32 noundef %2) local_unnamed_addr #4 align 2 {
  %4 = getelementptr inbounds i8, ptr %0, i64 336
  %5 = load ptr, ptr %4, align 8
  %6 = getelementptr inbounds i8, ptr %5, i64 16
  %7 = sext i32 %2 to i64
  %8 = load ptr, ptr %6, align 8
  %9 = getelementptr inbounds i32, ptr %8, i64 %7
  %10 = load i32, ptr %9, align 4
  %11 = add nsw i32 %10, %1
  %12 = getelementptr inbounds i8, ptr %0, i64 312
  %13 = load ptr, ptr %12, align 8
  %14 = getelementptr inbounds i8, ptr %13, i64 16
  %15 = sext i32 %11 to i64
  %16 = load ptr, ptr %14, align 8
  %17 = getelementptr inbounds i8, ptr %16, i64 %15
  %18 = load i8, ptr %17, align 1
  %19 = icmp eq i8 %18, 0
  %20 = zext i1 %19 to i8
  store i8 %20, ptr %17, align 1
  ret void
}